; Function Attrs: nounwind uwtable
define ptr @l___private_Std_Time_Zoned_ZoneRules_0__Std_Time_TimeZone_reprStdWall____x40_Std_Time_Zoned_ZoneRules___hyg_112_(i8 noundef zeroext %0, ptr noundef %1) local_unnamed_addr #1 {
  %3 = icmp eq i8 %0, 0
  %4 = ptrtoint ptr %1 to i64
  %5 = and i64 %4, 1
  %.not22 = icmp eq i64 %5, 0
  br i1 %3, label %6, label %10

6:                                                ; preds = %2
  br i1 %.not22, label %lean_nat_le.exit, label %7, !prof !15

7:                                                ; preds = %6
  %.not23 = icmp ult ptr %1, inttoptr (i64 2049 to ptr)
  br i1 %.not23, label %14, label %9

lean_nat_le.exit:                                 ; preds = %6
  %8 = tail call zeroext i1 @lean_nat_big_le(ptr noundef nonnull inttoptr (i64 2049 to ptr), ptr noundef %1) #6
  br i1 %8, label %9, label %14

9:                                                ; preds = %7, %lean_nat_le.exit
  br label %14

10:                                               ; preds = %2
  br i1 %.not22, label %lean_nat_le.exit21, label %11, !prof !15

11:                                               ; preds = %10
  %.not = icmp ult ptr %1, inttoptr (i64 2049 to ptr)
  br i1 %.not, label %14, label %13

lean_nat_le.exit21:                               ; preds = %10
  %12 = tail call zeroext i1 @lean_nat_big_le(ptr noundef nonnull inttoptr (i64 2049 to ptr), ptr noundef %1) #6
  br i1 %12, label %13, label %14

13:                                               ; preds = %11, %lean_nat_le.exit21
  br label %14

14:                                               ; preds = %lean_nat_le.exit21, %11, %lean_nat_le.exit, %7, %13, %9
  %l___private_Std_Time_Zoned_ZoneRules_0__Std_Time_TimeZone_reprStdWall____x40_Std_Time_Zoned_ZoneRules___hyg_112____closed__10.sink = phi ptr [ @l___private_Std_Time_Zoned_ZoneRules_0__Std_Time_TimeZone_reprStdWall____x40_Std_Time_Zoned_ZoneRules___hyg_112____closed__12, %13 ], [ @l___private_Std_Time_Zoned_ZoneRules_0__Std_Time_TimeZone_reprStdWall____x40_Std_Time_Zoned_ZoneRules___hyg_112____closed__6, %9 ], [ @l___private_Std_Time_Zoned_ZoneRules_0__Std_Time_TimeZone_reprStdWall____x40_Std_Time_Zoned_ZoneRules___hyg_112____closed__4, %7 ], [ @l___private_Std_Time_Zoned_ZoneRules_0__Std_Time_TimeZone_reprStdWall____x40_Std_Time_Zoned_ZoneRules___hyg_112____closed__4, %lean_nat_le.exit ], [ @l___private_Std_Time_Zoned_ZoneRules_0__Std_Time_TimeZone_reprStdWall____x40_Std_Time_Zoned_ZoneRules___hyg_112____closed__10, %11 ], [ @l___private_Std_Time_Zoned_ZoneRules_0__Std_Time_TimeZone_reprStdWall____x40_Std_Time_Zoned_ZoneRules___hyg_112____closed__10, %lean_nat_le.exit21 ]
  %15 = load ptr, ptr %l___private_Std_Time_Zoned_ZoneRules_0__Std_Time_TimeZone_reprStdWall____x40_Std_Time_Zoned_ZoneRules___hyg_112____closed__10.sink, align 8, !tbaa !10
  %16 = tail call ptr @l_Repr_addAppParen(ptr noundef %15, ptr noundef %1) #6
  ret ptr %16
}